; ModuleID = '38/345.c'
source_filename = "38/345.c"
target datalayout = "e-m:e-p270:32:32-p271:32:32-p272:64:64-i64:64-f80:128-n8:16:32:64-S128"
target triple = "x86_64-pc-linux-gnu"

@.str = private unnamed_addr constant [3 x i8] c"%d\00", align 1
@.str.1 = private unnamed_addr constant [4 x i8] c"%lf\00", align 1
@.str.2 = private unnamed_addr constant [7 x i8] c"%.5lf\0A\00", align 1

; Function Attrs: noinline nounwind uwtable
define dso_local i32 @main(i32 %0, i8** %1) #0 {
  %3 = alloca i32, align 4
  %4 = alloca i32, align 4
  %5 = alloca i8**, align 8
  %6 = alloca i32, align 4
  %7 = alloca [111 x i32], align 16
  %8 = alloca i32, align 4
  %9 = alloca i32, align 4
  %10 = alloca [111 x [111 x double]], align 16
  %11 = alloca [111 x double], align 16
  %12 = alloca [111 x double], align 16
  %13 = alloca [111 x double], align 16
  %14 = alloca [111 x double], align 16
  store i32 0, i32* %3, align 4
  store i32 %0, i32* %4, align 4
  store i8** %1, i8*** %5, align 8
  %15 = call i32 (i8*, ...) @__isoc99_scanf(i8* getelementptr inbounds ([3 x i8], [3 x i8]* @.str, i64 0, i64 0), i32* %6)
  store i32 0, i32* %8, align 4
  br label %16

16:                                               ; preds = %44, %2
  %17 = load i32, i32* %8, align 4
  %18 = load i32, i32* %6, align 4
  %19 = icmp slt i32 %17, %18
  br i1 %19, label %20, label %47

20:                                               ; preds = %16
  %21 = load i32, i32* %8, align 4
  %22 = sext i32 %21 to i64
  %23 = getelementptr inbounds [111 x i32], [111 x i32]* %7, i64 0, i64 %22
  %24 = call i32 (i8*, ...) @__isoc99_scanf(i8* getelementptr inbounds ([3 x i8], [3 x i8]* @.str, i64 0, i64 0), i32* %23)
  store i32 0, i32* %9, align 4
  br label %25

25:                                               ; preds = %40, %20
  %26 = load i32, i32* %9, align 4
  %27 = load i32, i32* %8, align 4
  %28 = sext i32 %27 to i64
  %29 = getelementptr inbounds [111 x i32], [111 x i32]* %7, i64 0, i64 %28
  %30 = load i32, i32* %29, align 4
  %31 = icmp slt i32 %26, %30
  br i1 %31, label %32, label %43

32:                                               ; preds = %25
  %33 = load i32, i32* %8, align 4
  %34 = sext i32 %33 to i64
  %35 = getelementptr inbounds [111 x [111 x double]], [111 x [111 x double]]* %10, i64 0, i64 %34
  %36 = load i32, i32* %9, align 4
  %37 = sext i32 %36 to i64
  %38 = getelementptr inbounds [111 x double], [111 x double]* %35, i64 0, i64 %37
  %39 = call i32 (i8*, ...) @__isoc99_scanf(i8* getelementptr inbounds ([4 x i8], [4 x i8]* @.str.1, i64 0, i64 0), double* %38)
  br label %40

40:                                               ; preds = %32
  %41 = load i32, i32* %9, align 4
  %42 = add nsw i32 %41, 1
  store i32 %42, i32* %9, align 4
  br label %25

43:                                               ; preds = %25
  br label %44

44:                                               ; preds = %43
  %45 = load i32, i32* %8, align 4
  %46 = add nsw i32 %45, 1
  store i32 %46, i32* %8, align 4
  br label %16

47:                                               ; preds = %16
  store i32 0, i32* %8, align 4
  br label %48

48:                                               ; preds = %93, %47
  %49 = load i32, i32* %8, align 4
  %50 = load i32, i32* %6, align 4
  %51 = icmp slt i32 %49, %50
  br i1 %51, label %52, label %96

52:                                               ; preds = %48
  %53 = load i32, i32* %8, align 4
  %54 = sext i32 %53 to i64
  %55 = getelementptr inbounds [111 x double], [111 x double]* %12, i64 0, i64 %54
  store double 0.000000e+00, double* %55, align 8
  store i32 0, i32* %9, align 4
  br label %56

56:                                               ; preds = %76, %52
  %57 = load i32, i32* %9, align 4
  %58 = load i32, i32* %8, align 4
  %59 = sext i32 %58 to i64
  %60 = getelementptr inbounds [111 x i32], [111 x i32]* %7, i64 0, i64 %59
  %61 = load i32, i32* %60, align 4
  %62 = icmp slt i32 %57, %61
  br i1 %62, label %63, label %79

63:                                               ; preds = %56
  %64 = load i32, i32* %8, align 4
  %65 = sext i32 %64 to i64
  %66 = getelementptr inbounds [111 x [111 x double]], [111 x [111 x double]]* %10, i64 0, i64 %65
  %67 = load i32, i32* %9, align 4
  %68 = sext i32 %67 to i64
  %69 = getelementptr inbounds [111 x double], [111 x double]* %66, i64 0, i64 %68
  %70 = load double, double* %69, align 8
  %71 = load i32, i32* %8, align 4
  %72 = sext i32 %71 to i64
  %73 = getelementptr inbounds [111 x double], [111 x double]* %12, i64 0, i64 %72
  %74 = load double, double* %73, align 8
  %75 = fadd double %74, %70
  store double %75, double* %73, align 8
  br label %76

76:                                               ; preds = %63
  %77 = load i32, i32* %9, align 4
  %78 = add nsw i32 %77, 1
  store i32 %78, i32* %9, align 4
  br label %56

79:                                               ; preds = %56
  %80 = load i32, i32* %8, align 4
  %81 = sext i32 %80 to i64
  %82 = getelementptr inbounds [111 x double], [111 x double]* %12, i64 0, i64 %81
  %83 = load double, double* %82, align 8
  %84 = load i32, i32* %8, align 4
  %85 = sext i32 %84 to i64
  %86 = getelementptr inbounds [111 x i32], [111 x i32]* %7, i64 0, i64 %85
  %87 = load i32, i32* %86, align 4
  %88 = sitofp i32 %87 to double
  %89 = fdiv double %83, %88
  %90 = load i32, i32* %8, align 4
  %91 = sext i32 %90 to i64
  %92 = getelementptr inbounds [111 x double], [111 x double]* %11, i64 0, i64 %91
  store double %89, double* %92, align 8
  br label %93

93:                                               ; preds = %79
  %94 = load i32, i32* %8, align 4
  %95 = add nsw i32 %94, 1
  store i32 %95, i32* %8, align 4
  br label %48

96:                                               ; preds = %48
  store i32 0, i32* %8, align 4
  br label %97

97:                                               ; preds = %166, %96
  %98 = load i32, i32* %8, align 4
  %99 = load i32, i32* %6, align 4
  %100 = icmp slt i32 %98, %99
  br i1 %100, label %101, label %169

101:                                              ; preds = %97
  %102 = load i32, i32* %8, align 4
  %103 = sext i32 %102 to i64
  %104 = getelementptr inbounds [111 x double], [111 x double]* %13, i64 0, i64 %103
  store double 0.000000e+00, double* %104, align 8
  store i32 0, i32* %9, align 4
  br label %105

105:                                              ; preds = %143, %101
  %106 = load i32, i32* %9, align 4
  %107 = load i32, i32* %8, align 4
  %108 = sext i32 %107 to i64
  %109 = getelementptr inbounds [111 x i32], [111 x i32]* %7, i64 0, i64 %108
  %110 = load i32, i32* %109, align 4
  %111 = icmp slt i32 %106, %110
  br i1 %111, label %112, label %146

112:                                              ; preds = %105
  %113 = load i32, i32* %8, align 4
  %114 = sext i32 %113 to i64
  %115 = getelementptr inbounds [111 x [111 x double]], [111 x [111 x double]]* %10, i64 0, i64 %114
  %116 = load i32, i32* %9, align 4
  %117 = sext i32 %116 to i64
  %118 = getelementptr inbounds [111 x double], [111 x double]* %115, i64 0, i64 %117
  %119 = load double, double* %118, align 8
  %120 = load i32, i32* %8, align 4
  %121 = sext i32 %120 to i64
  %122 = getelementptr inbounds [111 x double], [111 x double]* %11, i64 0, i64 %121
  %123 = load double, double* %122, align 8
  %124 = fsub double %119, %123
  %125 = load i32, i32* %8, align 4
  %126 = sext i32 %125 to i64
  %127 = getelementptr inbounds [111 x [111 x double]], [111 x [111 x double]]* %10, i64 0, i64 %126
  %128 = load i32, i32* %9, align 4
  %129 = sext i32 %128 to i64
  %130 = getelementptr inbounds [111 x double], [111 x double]* %127, i64 0, i64 %129
  %131 = load double, double* %130, align 8
  %132 = load i32, i32* %8, align 4
  %133 = sext i32 %132 to i64
  %134 = getelementptr inbounds [111 x double], [111 x double]* %11, i64 0, i64 %133
  %135 = load double, double* %134, align 8
  %136 = fsub double %131, %135
  %137 = fmul double %124, %136
  %138 = load i32, i32* %8, align 4
  %139 = sext i32 %138 to i64
  %140 = getelementptr inbounds [111 x double], [111 x double]* %13, i64 0, i64 %139
  %141 = load double, double* %140, align 8
  %142 = fadd double %141, %137
  store double %142, double* %140, align 8
  br label %143

143:                                              ; preds = %112
  %144 = load i32, i32* %9, align 4
  %145 = add nsw i32 %144, 1
  store i32 %145, i32* %9, align 4
  br label %105

146:                                              ; preds = %105
  %147 = load i32, i32* %8, align 4
  %148 = sext i32 %147 to i64
  %149 = getelementptr inbounds [111 x double], [111 x double]* %13, i64 0, i64 %148
  %150 = load double, double* %149, align 8
  %151 = load i32, i32* %8, align 4
  %152 = sext i32 %151 to i64
  %153 = getelementptr inbounds [111 x i32], [111 x i32]* %7, i64 0, i64 %152
  %154 = load i32, i32* %153, align 4
  %155 = sitofp i32 %154 to double
  %156 = fdiv double %150, %155
  %157 = call double @sqrt(double %156) #3
  %158 = load i32, i32* %8, align 4
  %159 = sext i32 %158 to i64
  %160 = getelementptr inbounds [111 x double], [111 x double]* %14, i64 0, i64 %159
  store double %157, double* %160, align 8
  %161 = load i32, i32* %8, align 4
  %162 = sext i32 %161 to i64
  %163 = getelementptr inbounds [111 x double], [111 x double]* %14, i64 0, i64 %162
  %164 = load double, double* %163, align 8
  %165 = call i32 (i8*, ...) @printf(i8* getelementptr inbounds ([7 x i8], [7 x i8]* @.str.2, i64 0, i64 0), double %164)
  br label %166

166:                                              ; preds = %146
  %167 = load i32, i32* %8, align 4
  %168 = add nsw i32 %167, 1
  store i32 %168, i32* %8, align 4
  br label %97

169:                                              ; preds = %97
  ret i32 0
}

declare dso_local i32 @__isoc99_scanf(i8*, ...) #1

; Function Attrs: nounwind
declare dso_local double @sqrt(double) #2

declare dso_local i32 @printf(i8*, ...) #1


!llvm.module.flags = !{!0}
!llvm.ident = !{!1}

!0 = !{i32 1, !"wchar_size", i32 4}
!1 = !{!"clang version 10.0.0-4ubuntu1 "}
